#include <math.h>
#include <stdio.h>
#include <stdlib.h>
#include <string.h>

int main()
{
int k,n,i,j,m[100];
double b[100][1000],a=0,s=0;
scanf("%d",&k);
for(i=0;i<k;i++)
{
scanf("%d",&m[i]);
for(j=0;j<m[i];j++)
scanf("%lf",&b[i][j]);
}
for(i=0;i<k;i++)
{
	a=0;
	s=0;
for(j=0;j<m[i];j++)
a+=b[i][j];
a=a/m[i];

for(j=0;j<m[i];j++)
s+=(b[i][j]-a)*(b[i][j]-a);
s=sqrt(s/m[i]);
printf("%.5lf\n",s);
}
return 0;
}

