; ModuleID = '38/671.c'
source_filename = "38/671.c"
target datalayout = "e-m:e-p270:32:32-p271:32:32-p272:64:64-i64:64-f80:128-n8:16:32:64-S128"
target triple = "x86_64-pc-linux-gnu"

@.str = private unnamed_addr constant [3 x i8] c"%d\00", align 1
@.str.1 = private unnamed_addr constant [4 x i8] c"%lf\00", align 1
@.str.2 = private unnamed_addr constant [7 x i8] c"%.5lf\0A\00", align 1

; Function Attrs: noinline nounwind uwtable
define dso_local i32 @main() #0 {
  %1 = alloca i32, align 4
  %2 = alloca i32, align 4
  %3 = alloca i32, align 4
  %4 = alloca i32, align 4
  %5 = alloca i32, align 4
  %6 = alloca [100 x i32], align 16
  %7 = alloca [100 x [1000 x double]], align 16
  %8 = alloca double, align 8
  %9 = alloca double, align 8
  store i32 0, i32* %1, align 4
  store double 0.000000e+00, double* %8, align 8
  store double 0.000000e+00, double* %9, align 8
  %10 = call i32 (i8*, ...) @__isoc99_scanf(i8* getelementptr inbounds ([3 x i8], [3 x i8]* @.str, i64 0, i64 0), i32* %2)
  store i32 0, i32* %4, align 4
  br label %11

11:                                               ; preds = %39, %0
  %12 = load i32, i32* %4, align 4
  %13 = load i32, i32* %2, align 4
  %14 = icmp slt i32 %12, %13
  br i1 %14, label %15, label %42

15:                                               ; preds = %11
  %16 = load i32, i32* %4, align 4
  %17 = sext i32 %16 to i64
  %18 = getelementptr inbounds [100 x i32], [100 x i32]* %6, i64 0, i64 %17
  %19 = call i32 (i8*, ...) @__isoc99_scanf(i8* getelementptr inbounds ([3 x i8], [3 x i8]* @.str, i64 0, i64 0), i32* %18)
  store i32 0, i32* %5, align 4
  br label %20

20:                                               ; preds = %35, %15
  %21 = load i32, i32* %5, align 4
  %22 = load i32, i32* %4, align 4
  %23 = sext i32 %22 to i64
  %24 = getelementptr inbounds [100 x i32], [100 x i32]* %6, i64 0, i64 %23
  %25 = load i32, i32* %24, align 4
  %26 = icmp slt i32 %21, %25
  br i1 %26, label %27, label %38

27:                                               ; preds = %20
  %28 = load i32, i32* %4, align 4
  %29 = sext i32 %28 to i64
  %30 = getelementptr inbounds [100 x [1000 x double]], [100 x [1000 x double]]* %7, i64 0, i64 %29
  %31 = load i32, i32* %5, align 4
  %32 = sext i32 %31 to i64
  %33 = getelementptr inbounds [1000 x double], [1000 x double]* %30, i64 0, i64 %32
  %34 = call i32 (i8*, ...) @__isoc99_scanf(i8* getelementptr inbounds ([4 x i8], [4 x i8]* @.str.1, i64 0, i64 0), double* %33)
  br label %35

35:                                               ; preds = %27
  %36 = load i32, i32* %5, align 4
  %37 = add nsw i32 %36, 1
  store i32 %37, i32* %5, align 4
  br label %20

38:                                               ; preds = %20
  br label %39

39:                                               ; preds = %38
  %40 = load i32, i32* %4, align 4
  %41 = add nsw i32 %40, 1
  store i32 %41, i32* %4, align 4
  br label %11

42:                                               ; preds = %11
  store i32 0, i32* %4, align 4
  br label %43

43:                                               ; preds = %119, %42
  %44 = load i32, i32* %4, align 4
  %45 = load i32, i32* %2, align 4
  %46 = icmp slt i32 %44, %45
  br i1 %46, label %47, label %122

47:                                               ; preds = %43
  store double 0.000000e+00, double* %8, align 8
  store double 0.000000e+00, double* %9, align 8
  store i32 0, i32* %5, align 4
  br label %48

48:                                               ; preds = %65, %47
  %49 = load i32, i32* %5, align 4
  %50 = load i32, i32* %4, align 4
  %51 = sext i32 %50 to i64
  %52 = getelementptr inbounds [100 x i32], [100 x i32]* %6, i64 0, i64 %51
  %53 = load i32, i32* %52, align 4
  %54 = icmp slt i32 %49, %53
  br i1 %54, label %55, label %68

55:                                               ; preds = %48
  %56 = load i32, i32* %4, align 4
  %57 = sext i32 %56 to i64
  %58 = getelementptr inbounds [100 x [1000 x double]], [100 x [1000 x double]]* %7, i64 0, i64 %57
  %59 = load i32, i32* %5, align 4
  %60 = sext i32 %59 to i64
  %61 = getelementptr inbounds [1000 x double], [1000 x double]* %58, i64 0, i64 %60
  %62 = load double, double* %61, align 8
  %63 = load double, double* %8, align 8
  %64 = fadd double %63, %62
  store double %64, double* %8, align 8
  br label %65

65:                                               ; preds = %55
  %66 = load i32, i32* %5, align 4
  %67 = add nsw i32 %66, 1
  store i32 %67, i32* %5, align 4
  br label %48

68:                                               ; preds = %48
  %69 = load double, double* %8, align 8
  %70 = load i32, i32* %4, align 4
  %71 = sext i32 %70 to i64
  %72 = getelementptr inbounds [100 x i32], [100 x i32]* %6, i64 0, i64 %71
  %73 = load i32, i32* %72, align 4
  %74 = sitofp i32 %73 to double
  %75 = fdiv double %69, %74
  store double %75, double* %8, align 8
  store i32 0, i32* %5, align 4
  br label %76

76:                                               ; preds = %105, %68
  %77 = load i32, i32* %5, align 4
  %78 = load i32, i32* %4, align 4
  %79 = sext i32 %78 to i64
  %80 = getelementptr inbounds [100 x i32], [100 x i32]* %6, i64 0, i64 %79
  %81 = load i32, i32* %80, align 4
  %82 = icmp slt i32 %77, %81
  br i1 %82, label %83, label %108

83:                                               ; preds = %76
  %84 = load i32, i32* %4, align 4
  %85 = sext i32 %84 to i64
  %86 = getelementptr inbounds [100 x [1000 x double]], [100 x [1000 x double]]* %7, i64 0, i64 %85
  %87 = load i32, i32* %5, align 4
  %88 = sext i32 %87 to i64
  %89 = getelementptr inbounds [1000 x double], [1000 x double]* %86, i64 0, i64 %88
  %90 = load double, double* %89, align 8
  %91 = load double, double* %8, align 8
  %92 = fsub double %90, %91
  %93 = load i32, i32* %4, align 4
  %94 = sext i32 %93 to i64
  %95 = getelementptr inbounds [100 x [1000 x double]], [100 x [1000 x double]]* %7, i64 0, i64 %94
  %96 = load i32, i32* %5, align 4
  %97 = sext i32 %96 to i64
  %98 = getelementptr inbounds [1000 x double], [1000 x double]* %95, i64 0, i64 %97
  %99 = load double, double* %98, align 8
  %100 = load double, double* %8, align 8
  %101 = fsub double %99, %100
  %102 = fmul double %92, %101
  %103 = load double, double* %9, align 8
  %104 = fadd double %103, %102
  store double %104, double* %9, align 8
  br label %105

105:                                              ; preds = %83
  %106 = load i32, i32* %5, align 4
  %107 = add nsw i32 %106, 1
  store i32 %107, i32* %5, align 4
  br label %76

108:                                              ; preds = %76
  %109 = load double, double* %9, align 8
  %110 = load i32, i32* %4, align 4
  %111 = sext i32 %110 to i64
  %112 = getelementptr inbounds [100 x i32], [100 x i32]* %6, i64 0, i64 %111
  %113 = load i32, i32* %112, align 4
  %114 = sitofp i32 %113 to double
  %115 = fdiv double %109, %114
  %116 = call double @sqrt(double %115) #3
  store double %116, double* %9, align 8
  %117 = load double, double* %9, align 8
  %118 = call i32 (i8*, ...) @printf(i8* getelementptr inbounds ([7 x i8], [7 x i8]* @.str.2, i64 0, i64 0), double %117)
  br label %119

119:                                              ; preds = %108
  %120 = load i32, i32* %4, align 4
  %121 = add nsw i32 %120, 1
  store i32 %121, i32* %4, align 4
  br label %43

122:                                              ; preds = %43
  ret i32 0
}

declare dso_local i32 @__isoc99_scanf(i8*, ...) #1

; Function Attrs: nounwind
declare dso_local double @sqrt(double) #2

declare dso_local i32 @printf(i8*, ...) #1


!llvm.module.flags = !{!0}
!llvm.ident = !{!1}

!0 = !{i32 1, !"wchar_size", i32 4}
!1 = !{!"clang version 10.0.0-4ubuntu1 "}
